target datalayout = "e-m:e-p270:32:32-p271:32:32-p272:64:64-i64:64-i128:128-f80:128-n8:16:32:64-S128"
target triple = "x86_64-pc-linux-gnu"

@proto_register_mp4ves.ett = internal global [2 x ptr] [ptr @ett_mp4ves, ptr @ett_mp4ves_config], align 16
@.str.97 = private unnamed_addr constant [8 x i8] c"MP4V-ES\00", align 1
@.str.98 = private unnamed_addr constant [8 x i8] c"mp4v-es\00", align 1
@proto_mp4ves = internal global i32 0, align 4
@.str.99 = private unnamed_addr constant [7 x i8] c"mp4ves\00", align 1
@mp4ves_handle = internal global ptr null, align 8
@.str.100 = private unnamed_addr constant [14 x i8] c"mp4ves_config\00", align 1
@.str.101 = private unnamed_addr constant [21 x i8] c"dynamic.payload.type\00", align 1

; Function Attrs: null_pointer_is_valid sspstrong uwtable
define hidden void @proto_register_mp4ves() #0 {
  %1 = alloca ptr, align 8
  %2 = alloca ptr, align 8
  call void @llvm.lifetime.start.p0(i64 8, ptr %1) #6
  call void @llvm.lifetime.start.p0(i64 8, ptr %2) #6
  %3 = call i32 @proto_register_protocol(ptr noundef @.str.97, ptr noundef @.str.97, ptr noundef @.str.98)
  store i32 %3, ptr @proto_mp4ves, align 4
  %4 = load i32, ptr @proto_mp4ves, align 4
  call void @proto_register_field_array(i32 noundef %4, ptr noundef @proto_register_mp4ves.hf, i32 noundef 17)
  call void @proto_register_subtree_array(ptr noundef @proto_register_mp4ves.ett, i32 noundef 2)
  %5 = load i32, ptr @proto_mp4ves, align 4
  %6 = call ptr @expert_register_protocol(i32 noundef %5)
  store ptr %6, ptr %2, align 8
  %7 = load ptr, ptr %2, align 8
  call void @expert_register_field_array(ptr noundef %7, ptr noundef @proto_register_mp4ves.ei, i32 noundef 2)
  %8 = load i32, ptr @proto_mp4ves, align 4
  %9 = call ptr @register_dissector(ptr noundef @.str.99, ptr noundef @dissect_mp4ves, i32 noundef %8)
  store ptr %9, ptr @mp4ves_handle, align 8
  %10 = load i32, ptr @proto_mp4ves, align 4
  %11 = call ptr @register_dissector(ptr noundef @.str.100, ptr noundef @dissect_mp4ves_config, i32 noundef %10)
  %12 = load i32, ptr @proto_mp4ves, align 4
  %13 = call ptr @prefs_register_protocol(i32 noundef %12, ptr noundef null)
  store ptr %13, ptr %1, align 8
  %14 = load ptr, ptr %1, align 8
  call void @prefs_register_obsolete_preference(ptr noundef %14, ptr noundef @.str.101)
  call void @llvm.lifetime.end.p0(i64 8, ptr %2) #6
  call void @llvm.lifetime.end.p0(i64 8, ptr %1) #6
  ret void
}