; Function Attrs: null_pointer_is_valid sspstrong uwtable
define hidden void @proto_register_mp4ves() local_unnamed_addr #0 {
  %1 = tail call i32 @proto_register_protocol(ptr noundef nonnull @.str.97, ptr noundef nonnull @.str.97, ptr noundef nonnull @.str.98)
  store i32 %1, ptr @proto_mp4ves, align 4
  tail call void @proto_register_field_array(i32 noundef %1, ptr noundef nonnull @proto_register_mp4ves.hf, i32 noundef 17)
  tail call void @proto_register_subtree_array(ptr noundef nonnull @proto_register_mp4ves.ett, i32 noundef 2)
  %2 = load i32, ptr @proto_mp4ves, align 4
  %3 = tail call ptr @expert_register_protocol(i32 noundef %2)
  tail call void @expert_register_field_array(ptr noundef %3, ptr noundef nonnull @proto_register_mp4ves.ei, i32 noundef 2)
  %4 = load i32, ptr @proto_mp4ves, align 4
  %5 = tail call ptr @register_dissector(ptr noundef nonnull @.str.99, ptr noundef nonnull @dissect_mp4ves, i32 noundef %4)
  store ptr %5, ptr @mp4ves_handle, align 8
  %6 = load i32, ptr @proto_mp4ves, align 4
  %7 = tail call ptr @register_dissector(ptr noundef nonnull @.str.100, ptr noundef nonnull @dissect_mp4ves_config, i32 noundef %6)
  %8 = load i32, ptr @proto_mp4ves, align 4
  %9 = tail call ptr @prefs_register_protocol(i32 noundef %8, ptr noundef null)
  tail call void @prefs_register_obsolete_preference(ptr noundef %9, ptr noundef nonnull @.str.101)
  ret void
}